target datalayout = "e-m:e-p270:32:32-p271:32:32-p272:64:64-i64:64-i128:128-f80:128-n8:16:32:64-S128"
target triple = "x86_64-pc-linux-gnu"

%"class.boost::urls::url_base" = type { ptr, %"class.boost::urls::url_view_base", ptr, i64 }
%"class.boost::urls::url_view_base" = type { [8 x i8], %"struct.boost::urls::detail::url_impl", ptr }
%"struct.boost::urls::detail::url_impl" = type <{ ptr, [8 x i64], [7 x i64], i64, i64, [16 x i8], i16, [2 x i8], i32, i16, i8, [5 x i8] }>

; Function Attrs: mustprogress nounwind uwtable
define linkonce_odr hidden noundef signext i8 @_ZN5boost4urls7grammar6detail8to_lowerEc(i8 noundef signext %0) #2 comdat {
  %2 = alloca i8, align 1
  store i8 %0, ptr %2, align 1, !tbaa !32
  %3 = load i8, ptr %2, align 1, !tbaa !32
  %4 = sext i8 %3 to i32
  %5 = icmp sge i32 %4, 65
  br i1 %5, label %6, label %15

6:                                                ; preds = %1
  %7 = load i8, ptr %2, align 1, !tbaa !32
  %8 = sext i8 %7 to i32
  %9 = icmp sle i32 %8, 90
  br i1 %9, label %10, label %15

10:                                               ; preds = %6
  %11 = load i8, ptr %2, align 1, !tbaa !32
  %12 = sext i8 %11 to i32
  %13 = add nsw i32 %12, 97
  %14 = sub nsw i32 %13, 65
  br label %18

15:                                               ; preds = %6, %1
  %16 = load i8, ptr %2, align 1, !tbaa !32
  %17 = sext i8 %16 to i32
  br label %18

18:                                               ; preds = %15, %10
  %19 = phi i32 [ %14, %10 ], [ %17, %15 ]
  %20 = trunc i32 %19 to i8
  ret i8 %20
}

; Function Attrs: mustprogress nounwind uwtable
define linkonce_odr hidden noundef signext i8 @_ZN5boost4urls7grammar8to_lowerEc(i8 noundef signext %0) #2 comdat {
  %2 = alloca i8, align 1
  store i8 %0, ptr %2, align 1, !tbaa !32
  %3 = load i8, ptr %2, align 1, !tbaa !32
  %4 = call noundef signext i8 @_ZN5boost4urls7grammar6detail8to_lowerEc(i8 noundef signext %3) #9
  ret i8 %4
}

; Function Attrs: mustprogress nounwind uwtable
define void @_ZN5boost4urls8url_base21decoded_to_lower_implEi(ptr noundef nonnull align 8 dereferenceable(216) %0, i32 noundef %1) #2 align 2 {
  %3 = alloca ptr, align 8
  %4 = alloca i32, align 4
  %5 = alloca ptr, align 8
  %6 = alloca ptr, align 8
  store ptr %0, ptr %3, align 8, !tbaa !7
  store i32 %1, ptr %4, align 4, !tbaa !3
  %7 = load ptr, ptr %3, align 8
  call void @llvm.lifetime.start.p0(i64 8, ptr %5) #9
  %8 = getelementptr inbounds nuw %"class.boost::urls::url_base", ptr %7, i32 0, i32 2
  %9 = load ptr, ptr %8, align 8, !tbaa !23
  %10 = getelementptr inbounds i8, ptr %7, i64 8
  %11 = getelementptr inbounds nuw %"class.boost::urls::url_view_base", ptr %10, i32 0, i32 1
  %12 = load i32, ptr %4, align 4, !tbaa !3
  %13 = call noundef i64 @_ZNK5boost4urls6detail8url_impl6offsetEi(ptr noundef nonnull align 8 dereferenceable(171) %11, i32 noundef %12) #9
  %14 = getelementptr inbounds nuw i8, ptr %9, i64 %13
  store ptr %14, ptr %5, align 8, !tbaa !7
  call void @llvm.lifetime.start.p0(i64 8, ptr %6) #9
  %15 = getelementptr inbounds nuw %"class.boost::urls::url_base", ptr %7, i32 0, i32 2
  %16 = load ptr, ptr %15, align 8, !tbaa !23
  %17 = getelementptr inbounds i8, ptr %7, i64 8
  %18 = getelementptr inbounds nuw %"class.boost::urls::url_view_base", ptr %17, i32 0, i32 1
  %19 = load i32, ptr %4, align 4, !tbaa !3
  %20 = add nsw i32 %19, 1
  %21 = call noundef i64 @_ZNK5boost4urls6detail8url_impl6offsetEi(ptr noundef nonnull align 8 dereferenceable(171) %18, i32 noundef %20) #9
  %22 = getelementptr inbounds nuw i8, ptr %16, i64 %21
  store ptr %22, ptr %6, align 8, !tbaa !7
  br label %23

23:                                               ; preds = %39, %32, %2
  %24 = load ptr, ptr %5, align 8, !tbaa !7
  %25 = load ptr, ptr %6, align 8, !tbaa !7
  %26 = icmp ult ptr %24, %25
  br i1 %26, label %27, label %42

27:                                               ; preds = %23
  %28 = load ptr, ptr %5, align 8, !tbaa !7
  %29 = load i8, ptr %28, align 1, !tbaa !32
  %30 = sext i8 %29 to i32
  %31 = icmp ne i32 %30, 37
  br i1 %31, label %32, label %39

32:                                               ; preds = %27
  %33 = load ptr, ptr %5, align 8, !tbaa !7
  %34 = load i8, ptr %33, align 1, !tbaa !32
  %35 = call noundef signext i8 @_ZN5boost4urls7grammar8to_lowerEc(i8 noundef signext %34) #9
  %36 = load ptr, ptr %5, align 8, !tbaa !7
  store i8 %35, ptr %36, align 1, !tbaa !32
  %37 = load ptr, ptr %5, align 8, !tbaa !7
  %38 = getelementptr inbounds nuw i8, ptr %37, i32 1
  store ptr %38, ptr %5, align 8, !tbaa !7
  br label %23, !llvm.loop !120

39:                                               ; preds = %27
  %40 = load ptr, ptr %5, align 8, !tbaa !7
  %41 = getelementptr inbounds i8, ptr %40, i64 3
  store ptr %41, ptr %5, align 8, !tbaa !7
  br label %23, !llvm.loop !120

42:                                               ; preds = %23
  call void @llvm.lifetime.end.p0(i64 8, ptr %6) #9
  call void @llvm.lifetime.end.p0(i64 8, ptr %5) #9
  ret void
}