; Function Attrs: mustprogress nounwind uwtable
define void @_ZN5boost4urls8url_base21decoded_to_lower_implEi(ptr noundef nonnull align 8 dereferenceable(216) %0, i32 noundef %1) local_unnamed_addr #6 align 2 {
  %3 = getelementptr inbounds nuw i8, ptr %0, i64 200
  %4 = load ptr, ptr %3, align 8, !tbaa !16
  %5 = getelementptr inbounds i8, ptr %0, i64 16
  %6 = tail call noundef i64 @_ZNK5boost4urls6detail8url_impl6offsetEi(ptr noundef nonnull align 8 dereferenceable(171) %5, i32 noundef %1) #30
  %7 = getelementptr inbounds nuw i8, ptr %4, i64 %6
  %8 = load ptr, ptr %3, align 8, !tbaa !16
  %9 = add nsw i32 %1, 1
  %10 = tail call noundef i64 @_ZNK5boost4urls6detail8url_impl6offsetEi(ptr noundef nonnull align 8 dereferenceable(171) %5, i32 noundef %9) #30
  %11 = getelementptr inbounds nuw i8, ptr %8, i64 %10
  %12 = icmp ult ptr %7, %11
  br i1 %12, label %.lr.ph, label %._crit_edge

.lr.ph:                                           ; preds = %2, %.backedge
  %.09 = phi ptr [ %18, %.backedge ], [ %7, %2 ]
  %13 = load i8, ptr %.09, align 1, !tbaa !25
  %.not = icmp eq i8 %13, 37
  br i1 %.not, label %.backedge, label %14

14:                                               ; preds = %.lr.ph
  %15 = add i8 %13, -65
  %or.cond.i.i = icmp ult i8 %15, 26
  %16 = add nuw nsw i8 %13, 32
  %17 = select i1 %or.cond.i.i, i8 %16, i8 %13
  store i8 %17, ptr %.09, align 1, !tbaa !25
  br label %.backedge

.backedge:                                        ; preds = %.lr.ph, %14
  %.sink = phi i64 [ 1, %14 ], [ 3, %.lr.ph ]
  %18 = getelementptr inbounds i8, ptr %.09, i64 %.sink
  %19 = icmp ult ptr %18, %11
  br i1 %19, label %.lr.ph, label %._crit_edge, !llvm.loop !204

._crit_edge:                                      ; preds = %.backedge, %2
  ret void
}